target datalayout = "e-m:e-p270:32:32-p271:32:32-p272:64:64-i64:64-i128:128-f80:128-n8:16:32:64-S128"
target triple = "x86_64-pc-linux-gnu"

%"class.icu_77::UObject" = type { ptr }
%"class.icu_77::Calendar" = type <{ %"class.icu_77::UObject", [24 x i32], [24 x i8], i8, [7 x i8], double, ptr, i8, i16, i8, i32, i32, i32, i8, i8, i16, [4 x i8], ptr, ptr }>

; Function Attrs: mustprogress nounwind uwtable
define void @_ZN6icu_778Calendar16recalculateStampEv(ptr noundef nonnull align 8 dereferenceable(192) %0) #0 align 2 {
  %2 = alloca ptr, align 8
  %3 = alloca i32, align 4
  %4 = alloca i32, align 4
  %5 = alloca i32, align 4
  %6 = alloca i32, align 4
  store ptr %0, ptr %2, align 8, !tbaa !37
  %7 = load ptr, ptr %2, align 8
  call void @llvm.lifetime.start.p0(i64 4, ptr %3) #16
  call void @llvm.lifetime.start.p0(i64 4, ptr %4) #16
  call void @llvm.lifetime.start.p0(i64 4, ptr %5) #16
  call void @llvm.lifetime.start.p0(i64 4, ptr %6) #16
  %8 = getelementptr inbounds nuw %"class.icu_77::Calendar", ptr %7, i32 0, i32 3
  store i8 1, ptr %8, align 8, !tbaa !54
  store i32 0, ptr %5, align 4, !tbaa !14
  br label %9

9:                                                ; preds = %61, %1
  %10 = load i32, ptr %5, align 4, !tbaa !14
  %11 = icmp slt i32 %10, 24
  br i1 %11, label %12, label %64

12:                                               ; preds = %9
  store i32 127, ptr %4, align 4, !tbaa !14
  store i32 -1, ptr %3, align 4, !tbaa !14
  store i32 0, ptr %6, align 4, !tbaa !14
  br label %13

13:                                               ; preds = %45, %12
  %14 = load i32, ptr %6, align 4, !tbaa !14
  %15 = icmp slt i32 %14, 24
  br i1 %15, label %16, label %48

16:                                               ; preds = %13
  %17 = getelementptr inbounds nuw %"class.icu_77::Calendar", ptr %7, i32 0, i32 2
  %18 = load i32, ptr %6, align 4, !tbaa !14
  %19 = sext i32 %18 to i64
  %20 = getelementptr inbounds [24 x i8], ptr %17, i64 0, i64 %19
  %21 = load i8, ptr %20, align 1, !tbaa !70
  %22 = sext i8 %21 to i32
  %23 = getelementptr inbounds nuw %"class.icu_77::Calendar", ptr %7, i32 0, i32 3
  %24 = load i8, ptr %23, align 8, !tbaa !54
  %25 = sext i8 %24 to i32
  %26 = icmp sgt i32 %22, %25
  br i1 %26, label %27, label %44

27:                                               ; preds = %16
  %28 = getelementptr inbounds nuw %"class.icu_77::Calendar", ptr %7, i32 0, i32 2
  %29 = load i32, ptr %6, align 4, !tbaa !14
  %30 = sext i32 %29 to i64
  %31 = getelementptr inbounds [24 x i8], ptr %28, i64 0, i64 %30
  %32 = load i8, ptr %31, align 1, !tbaa !70
  %33 = sext i8 %32 to i32
  %34 = load i32, ptr %4, align 4, !tbaa !14
  %35 = icmp slt i32 %33, %34
  br i1 %35, label %36, label %44

36:                                               ; preds = %27
  %37 = getelementptr inbounds nuw %"class.icu_77::Calendar", ptr %7, i32 0, i32 2
  %38 = load i32, ptr %6, align 4, !tbaa !14
  %39 = sext i32 %38 to i64
  %40 = getelementptr inbounds [24 x i8], ptr %37, i64 0, i64 %39
  %41 = load i8, ptr %40, align 1, !tbaa !70
  %42 = sext i8 %41 to i32
  store i32 %42, ptr %4, align 4, !tbaa !14
  %43 = load i32, ptr %6, align 4, !tbaa !14
  store i32 %43, ptr %3, align 4, !tbaa !14
  br label %44

44:                                               ; preds = %36, %27, %16
  br label %45

45:                                               ; preds = %44
  %46 = load i32, ptr %6, align 4, !tbaa !14
  %47 = add nsw i32 %46, 1
  store i32 %47, ptr %6, align 4, !tbaa !14
  br label %13, !llvm.loop !108

48:                                               ; preds = %13
  %49 = load i32, ptr %3, align 4, !tbaa !14
  %50 = icmp sge i32 %49, 0
  br i1 %50, label %51, label %59

51:                                               ; preds = %48
  %52 = getelementptr inbounds nuw %"class.icu_77::Calendar", ptr %7, i32 0, i32 3
  %53 = load i8, ptr %52, align 8, !tbaa !54
  %54 = add i8 %53, 1
  store i8 %54, ptr %52, align 8, !tbaa !54
  %55 = getelementptr inbounds nuw %"class.icu_77::Calendar", ptr %7, i32 0, i32 2
  %56 = load i32, ptr %3, align 4, !tbaa !14
  %57 = sext i32 %56 to i64
  %58 = getelementptr inbounds [24 x i8], ptr %55, i64 0, i64 %57
  store i8 %54, ptr %58, align 1, !tbaa !70
  br label %60

59:                                               ; preds = %48
  br label %64

60:                                               ; preds = %51
  br label %61

61:                                               ; preds = %60
  %62 = load i32, ptr %5, align 4, !tbaa !14
  %63 = add nsw i32 %62, 1
  store i32 %63, ptr %5, align 4, !tbaa !14
  br label %9, !llvm.loop !110

64:                                               ; preds = %59, %9
  %65 = getelementptr inbounds nuw %"class.icu_77::Calendar", ptr %7, i32 0, i32 3
  %66 = load i8, ptr %65, align 8, !tbaa !54
  %67 = add i8 %66, 1
  store i8 %67, ptr %65, align 8, !tbaa !54
  call void @llvm.lifetime.end.p0(i64 4, ptr %6) #16
  call void @llvm.lifetime.end.p0(i64 4, ptr %5) #16
  call void @llvm.lifetime.end.p0(i64 4, ptr %4) #16
  call void @llvm.lifetime.end.p0(i64 4, ptr %3) #16
  ret void
}

; Function Attrs: mustprogress uwtable
define void @_ZN6icu_778Calendar3setE19UCalendarDateFieldsi(ptr noundef nonnull align 8 dereferenceable(192) %0, i32 noundef %1, i32 noundef %2) #1 align 2 {
  %4 = alloca ptr, align 8
  %5 = alloca i32, align 4
  %6 = alloca i32, align 4
  %7 = alloca i32, align 4
  store ptr %0, ptr %4, align 8, !tbaa !37
  store i32 %1, ptr %5, align 4, !tbaa !106
  store i32 %2, ptr %6, align 4, !tbaa !14
  %8 = load ptr, ptr %4, align 8
  %9 = load i32, ptr %5, align 4, !tbaa !106
  %10 = icmp slt i32 %9, 0
  br i1 %10, label %14, label %11

11:                                               ; preds = %3
  %12 = load i32, ptr %5, align 4, !tbaa !106
  %13 = icmp sge i32 %12, 24
  br i1 %13, label %14, label %15

14:                                               ; preds = %11, %3
  br label %56

15:                                               ; preds = %11
  %16 = getelementptr inbounds nuw %"class.icu_77::Calendar", ptr %8, i32 0, i32 7
  %17 = load i8, ptr %16, align 8
  %18 = lshr i8 %17, 3
  %19 = and i8 %18, 1
  %20 = trunc i8 %19 to i1
  br i1 %20, label %21, label %25

21:                                               ; preds = %15
  call void @llvm.lifetime.start.p0(i64 4, ptr %7) #16
  store i32 0, ptr %7, align 4, !tbaa !15
  %22 = load ptr, ptr %8, align 8, !tbaa !25
  %23 = getelementptr inbounds ptr, ptr %22, i64 32
  %24 = load ptr, ptr %23, align 8
  call void %24(ptr noundef nonnull align 8 dereferenceable(192) %8, ptr noundef nonnull align 4 dereferenceable(4) %7)
  call void @llvm.lifetime.end.p0(i64 4, ptr %7) #16
  br label %25

25:                                               ; preds = %21, %15
  %26 = load i32, ptr %6, align 4, !tbaa !14
  %27 = getelementptr inbounds nuw %"class.icu_77::Calendar", ptr %8, i32 0, i32 1
  %28 = load i32, ptr %5, align 4, !tbaa !106
  %29 = zext i32 %28 to i64
  %30 = getelementptr inbounds nuw [24 x i32], ptr %27, i64 0, i64 %29
  store i32 %26, ptr %30, align 4, !tbaa !14
  %31 = getelementptr inbounds nuw %"class.icu_77::Calendar", ptr %8, i32 0, i32 3
  %32 = load i8, ptr %31, align 8, !tbaa !54
  %33 = sext i8 %32 to i32
  %34 = icmp eq i32 %33, 127
  br i1 %34, label %35, label %36

35:                                               ; preds = %25
  call void @_ZN6icu_778Calendar16recalculateStampEv(ptr noundef nonnull align 8 dereferenceable(192) %8)
  br label %36

36:                                               ; preds = %35, %25
  %37 = getelementptr inbounds nuw %"class.icu_77::Calendar", ptr %8, i32 0, i32 3
  %38 = load i8, ptr %37, align 8, !tbaa !54
  %39 = add i8 %38, 1
  store i8 %39, ptr %37, align 8, !tbaa !54
  %40 = getelementptr inbounds nuw %"class.icu_77::Calendar", ptr %8, i32 0, i32 2
  %41 = load i32, ptr %5, align 4, !tbaa !106
  %42 = zext i32 %41 to i64
  %43 = getelementptr inbounds nuw [24 x i8], ptr %40, i64 0, i64 %42
  store i8 %38, ptr %43, align 1, !tbaa !70
  %44 = getelementptr inbounds nuw %"class.icu_77::Calendar", ptr %8, i32 0, i32 7
  %45 = load i8, ptr %44, align 8
  %46 = and i8 %45, -9
  %47 = or i8 %46, 0
  store i8 %47, ptr %44, align 8
  %48 = getelementptr inbounds nuw %"class.icu_77::Calendar", ptr %8, i32 0, i32 7
  %49 = load i8, ptr %48, align 8
  %50 = and i8 %49, -3
  %51 = or i8 %50, 0
  store i8 %51, ptr %48, align 8
  %52 = getelementptr inbounds nuw %"class.icu_77::Calendar", ptr %8, i32 0, i32 7
  %53 = load i8, ptr %52, align 8
  %54 = and i8 %53, -2
  %55 = or i8 %54, 0
  store i8 %55, ptr %52, align 8
  br label %56

56:                                               ; preds = %36, %14
  ret void
}

; Function Attrs: inlinehint mustprogress nounwind uwtable
define internal noundef signext i8 @_ZL9U_FAILURE10UErrorCode(i32 noundef %0) #2 {
  %2 = alloca i32, align 4
  store i32 %0, ptr %2, align 4, !tbaa !15
  %3 = load i32, ptr %2, align 4, !tbaa !15
  %4 = icmp sgt i32 %3, 0
  %5 = zext i1 %4 to i8
  ret i8 %5
}

; Function Attrs: mustprogress uwtable
define void @_ZN6icu_778Calendar8pinFieldE19UCalendarDateFieldsR10UErrorCode(ptr noundef nonnull align 8 dereferenceable(192) %0, i32 noundef %1, ptr noundef nonnull align 4 dereferenceable(4) %2) unnamed_addr #1 align 2 {
  %4 = alloca ptr, align 8
  %5 = alloca i32, align 4
  %6 = alloca ptr, align 8
  %7 = alloca i32, align 4
  %8 = alloca i32, align 4
  store ptr %0, ptr %4, align 8, !tbaa !37
  store i32 %1, ptr %5, align 4, !tbaa !106
  store ptr %2, ptr %6, align 8, !tbaa !22
  %9 = load ptr, ptr %4, align 8
  %10 = load ptr, ptr %6, align 8, !tbaa !22
  %11 = load i32, ptr %10, align 4, !tbaa !15
  %12 = call noundef signext i8 @_ZL9U_FAILURE10UErrorCode(i32 noundef %11)
  %13 = icmp ne i8 %12, 0
  br i1 %13, label %14, label %15

14:                                               ; preds = %3
  br label %59

15:                                               ; preds = %3
  %16 = load i32, ptr %5, align 4, !tbaa !106
  %17 = icmp slt i32 %16, 0
  br i1 %17, label %21, label %18

18:                                               ; preds = %15
  %19 = load i32, ptr %5, align 4, !tbaa !106
  %20 = icmp sge i32 %19, 24
  br i1 %20, label %21, label %23

21:                                               ; preds = %18, %15
  %22 = load ptr, ptr %6, align 8, !tbaa !22
  store i32 1, ptr %22, align 4, !tbaa !15
  br label %59

23:                                               ; preds = %18
  call void @llvm.lifetime.start.p0(i64 4, ptr %7) #16
  %24 = load i32, ptr %5, align 4, !tbaa !106
  %25 = load ptr, ptr %6, align 8, !tbaa !22
  %26 = load ptr, ptr %9, align 8, !tbaa !25
  %27 = getelementptr inbounds ptr, ptr %26, i64 22
  %28 = load ptr, ptr %27, align 8
  %29 = call noundef i32 %28(ptr noundef nonnull align 8 dereferenceable(192) %9, i32 noundef %24, ptr noundef nonnull align 4 dereferenceable(4) %25)
  store i32 %29, ptr %7, align 4, !tbaa !14
  call void @llvm.lifetime.start.p0(i64 4, ptr %8) #16
  %30 = load i32, ptr %5, align 4, !tbaa !106
  %31 = load ptr, ptr %6, align 8, !tbaa !22
  %32 = load ptr, ptr %9, align 8, !tbaa !25
  %33 = getelementptr inbounds ptr, ptr %32, i64 21
  %34 = load ptr, ptr %33, align 8
  %35 = call noundef i32 %34(ptr noundef nonnull align 8 dereferenceable(192) %9, i32 noundef %30, ptr noundef nonnull align 4 dereferenceable(4) %31)
  store i32 %35, ptr %8, align 4, !tbaa !14
  %36 = getelementptr inbounds nuw %"class.icu_77::Calendar", ptr %9, i32 0, i32 1
  %37 = load i32, ptr %5, align 4, !tbaa !106
  %38 = zext i32 %37 to i64
  %39 = getelementptr inbounds nuw [24 x i32], ptr %36, i64 0, i64 %38
  %40 = load i32, ptr %39, align 4, !tbaa !14
  %41 = load i32, ptr %7, align 4, !tbaa !14
  %42 = icmp sgt i32 %40, %41
  br i1 %42, label %43, label %46

43:                                               ; preds = %23
  %44 = load i32, ptr %5, align 4, !tbaa !106
  %45 = load i32, ptr %7, align 4, !tbaa !14
  call void @_ZN6icu_778Calendar3setE19UCalendarDateFieldsi(ptr noundef nonnull align 8 dereferenceable(192) %9, i32 noundef %44, i32 noundef %45)
  br label %58

46:                                               ; preds = %23
  %47 = getelementptr inbounds nuw %"class.icu_77::Calendar", ptr %9, i32 0, i32 1
  %48 = load i32, ptr %5, align 4, !tbaa !106
  %49 = zext i32 %48 to i64
  %50 = getelementptr inbounds nuw [24 x i32], ptr %47, i64 0, i64 %49
  %51 = load i32, ptr %50, align 4, !tbaa !14
  %52 = load i32, ptr %8, align 4, !tbaa !14
  %53 = icmp slt i32 %51, %52
  br i1 %53, label %54, label %57

54:                                               ; preds = %46
  %55 = load i32, ptr %5, align 4, !tbaa !106
  %56 = load i32, ptr %8, align 4, !tbaa !14
  call void @_ZN6icu_778Calendar3setE19UCalendarDateFieldsi(ptr noundef nonnull align 8 dereferenceable(192) %9, i32 noundef %55, i32 noundef %56)
  br label %57

57:                                               ; preds = %54, %46
  br label %58

58:                                               ; preds = %57, %43
  call void @llvm.lifetime.end.p0(i64 4, ptr %8) #16
  call void @llvm.lifetime.end.p0(i64 4, ptr %7) #16
  br label %59

59:                                               ; preds = %58, %21, %14
  ret void
}