; Function Attrs: mustprogress uwtable
define void @_ZN6icu_778Calendar8pinFieldE19UCalendarDateFieldsR10UErrorCode(ptr noundef nonnull align 8 dereferenceable(192) %0, i32 noundef %1, ptr noundef nonnull align 4 dereferenceable(4) %2) unnamed_addr #1 align 2 {
  %4 = alloca i32, align 4
  %5 = alloca i32, align 4
  %6 = load i32, ptr %2, align 4, !tbaa !13
  %7 = icmp slt i32 %6, 1
  br i1 %7, label %8, label %100

8:                                                ; preds = %3
  %or.cond = icmp ugt i32 %1, 23
  br i1 %or.cond, label %9, label %10

9:                                                ; preds = %8
  store i32 1, ptr %2, align 4, !tbaa !13
  br label %100

10:                                               ; preds = %8
  %11 = load ptr, ptr %0, align 8, !tbaa !15
  %12 = getelementptr inbounds nuw i8, ptr %11, i64 176
  %13 = load ptr, ptr %12, align 8
  %14 = tail call noundef i32 %13(ptr noundef nonnull align 8 dereferenceable(192) %0, i32 noundef %1, ptr noundef nonnull align 4 dereferenceable(4) %2)
  %15 = load ptr, ptr %0, align 8, !tbaa !15
  %16 = getelementptr inbounds nuw i8, ptr %15, i64 168
  %17 = load ptr, ptr %16, align 8
  %18 = tail call noundef i32 %17(ptr noundef nonnull align 8 dereferenceable(192) %0, i32 noundef %1, ptr noundef nonnull align 4 dereferenceable(4) %2)
  %19 = getelementptr inbounds nuw i8, ptr %0, i64 8
  %20 = zext nneg i32 %1 to i64
  %21 = getelementptr inbounds nuw [24 x i32], ptr %19, i64 0, i64 %20
  %22 = load i32, ptr %21, align 4, !tbaa !12
  %23 = icmp sgt i32 %22, %14
  br i1 %23, label %24, label %61

24:                                               ; preds = %10
  %25 = getelementptr inbounds nuw i8, ptr %0, i64 152
  %26 = load i8, ptr %25, align 8
  %27 = and i8 %26, 8
  %.not.i = icmp eq i8 %27, 0
  br i1 %.not.i, label %32, label %28

28:                                               ; preds = %24
  call void @llvm.lifetime.start.p0(i64 4, ptr nonnull %5) #25
  store i32 0, ptr %5, align 4, !tbaa !13
  %29 = load ptr, ptr %0, align 8, !tbaa !15
  %30 = getelementptr inbounds nuw i8, ptr %29, i64 256
  %31 = load ptr, ptr %30, align 8
  call void %31(ptr noundef nonnull align 8 dereferenceable(192) %0, ptr noundef nonnull align 4 dereferenceable(4) %5)
  call void @llvm.lifetime.end.p0(i64 4, ptr nonnull %5) #25
  br label %32

32:                                               ; preds = %28, %24
  store i32 %14, ptr %21, align 4, !tbaa !12
  %33 = getelementptr inbounds nuw i8, ptr %0, i64 128
  %34 = load i8, ptr %33, align 8, !tbaa !40
  %35 = icmp eq i8 %34, 127
  br i1 %35, label %36, label %_ZN6icu_778Calendar3setE19UCalendarDateFieldsi.exit

36:                                               ; preds = %32
  store i8 1, ptr %33, align 8, !tbaa !40
  %37 = getelementptr inbounds nuw i8, ptr %0, i64 104
  br label %.preheader.i.i

.preheader.i.i:                                   ; preds = %48, %36
  %.01119.i.i = phi i32 [ 0, %36 ], [ %52, %48 ]
  %38 = load i8, ptr %33, align 8, !tbaa !40
  br label %39

39:                                               ; preds = %39, %.preheader.i.i
  %indvars.iv.i.i = phi i64 [ 0, %.preheader.i.i ], [ %indvars.iv.next.i.i, %39 ]
  %.01217.i.i = phi i32 [ 127, %.preheader.i.i ], [ %.1.i.i, %39 ]
  %.01316.i.i = phi i32 [ -1, %.preheader.i.i ], [ %.114.i.i, %39 ]
  %40 = getelementptr inbounds nuw [24 x i8], ptr %37, i64 0, i64 %indvars.iv.i.i
  %41 = load i8, ptr %40, align 1, !tbaa !47
  %42 = sext i8 %41 to i32
  %43 = icmp sgt i8 %41, %38
  %44 = icmp sgt i32 %.01217.i.i, %42
  %or.cond.i.i = select i1 %43, i1 %44, i1 false
  %45 = trunc nuw nsw i64 %indvars.iv.i.i to i32
  %.114.i.i = select i1 %or.cond.i.i, i32 %45, i32 %.01316.i.i
  %.1.i.i = select i1 %or.cond.i.i, i32 %42, i32 %.01217.i.i
  %indvars.iv.next.i.i = add nuw nsw i64 %indvars.iv.i.i, 1
  %exitcond.not.i.i = icmp eq i64 %indvars.iv.next.i.i, 24
  br i1 %exitcond.not.i.i, label %46, label %39, !llvm.loop !68

46:                                               ; preds = %39
  %47 = icmp sgt i32 %.114.i.i, -1
  br i1 %47, label %48, label %_ZN6icu_778Calendar16recalculateStampEv.exit.i

48:                                               ; preds = %46
  %49 = add i8 %38, 1
  store i8 %49, ptr %33, align 8, !tbaa !40
  %50 = zext nneg i32 %.114.i.i to i64
  %51 = getelementptr inbounds nuw [24 x i8], ptr %37, i64 0, i64 %50
  store i8 %49, ptr %51, align 1, !tbaa !47
  %52 = add nuw nsw i32 %.01119.i.i, 1
  %exitcond21.not.i.i = icmp eq i32 %52, 24
  br i1 %exitcond21.not.i.i, label %._crit_edge.i.i, label %.preheader.i.i, !llvm.loop !69

._crit_edge.i.i:                                  ; preds = %48
  %.pre.i.i = load i8, ptr %33, align 8, !tbaa !40
  br label %_ZN6icu_778Calendar16recalculateStampEv.exit.i

_ZN6icu_778Calendar16recalculateStampEv.exit.i:   ; preds = %46, %._crit_edge.i.i
  %53 = phi i8 [ %.pre.i.i, %._crit_edge.i.i ], [ %38, %46 ]
  %54 = add i8 %53, 1
  br label %_ZN6icu_778Calendar3setE19UCalendarDateFieldsi.exit

_ZN6icu_778Calendar3setE19UCalendarDateFieldsi.exit: ; preds = %32, %_ZN6icu_778Calendar16recalculateStampEv.exit.i
  %55 = phi i8 [ %54, %_ZN6icu_778Calendar16recalculateStampEv.exit.i ], [ %34, %32 ]
  %56 = add i8 %55, 1
  store i8 %56, ptr %33, align 8, !tbaa !40
  %57 = getelementptr inbounds nuw i8, ptr %0, i64 104
  %58 = getelementptr inbounds nuw [24 x i8], ptr %57, i64 0, i64 %20
  store i8 %55, ptr %58, align 1, !tbaa !47
  %59 = load i8, ptr %25, align 8
  %60 = and i8 %59, -12
  store i8 %60, ptr %25, align 8
  br label %100

61:                                               ; preds = %10
  %62 = icmp slt i32 %22, %18
  br i1 %62, label %63, label %100

63:                                               ; preds = %61
  %64 = getelementptr inbounds nuw i8, ptr %0, i64 152
  %65 = load i8, ptr %64, align 8
  %66 = and i8 %65, 8
  %.not.i21 = icmp eq i8 %66, 0
  br i1 %.not.i21, label %71, label %67

67:                                               ; preds = %63
  call void @llvm.lifetime.start.p0(i64 4, ptr nonnull %4) #25
  store i32 0, ptr %4, align 4, !tbaa !13
  %68 = load ptr, ptr %0, align 8, !tbaa !15
  %69 = getelementptr inbounds nuw i8, ptr %68, i64 256
  %70 = load ptr, ptr %69, align 8
  call void %70(ptr noundef nonnull align 8 dereferenceable(192) %0, ptr noundef nonnull align 4 dereferenceable(4) %4)
  call void @llvm.lifetime.end.p0(i64 4, ptr nonnull %4) #25
  br label %71

71:                                               ; preds = %67, %63
  store i32 %18, ptr %21, align 4, !tbaa !12
  %72 = getelementptr inbounds nuw i8, ptr %0, i64 128
  %73 = load i8, ptr %72, align 8, !tbaa !40
  %74 = icmp eq i8 %73, 127
  br i1 %74, label %75, label %_ZN6icu_778Calendar3setE19UCalendarDateFieldsi.exit36

75:                                               ; preds = %71
  store i8 1, ptr %72, align 8, !tbaa !40
  %76 = getelementptr inbounds nuw i8, ptr %0, i64 104
  br label %.preheader.i.i22

.preheader.i.i22:                                 ; preds = %87, %75
  %.01119.i.i23 = phi i32 [ 0, %75 ], [ %91, %87 ]
  %77 = load i8, ptr %72, align 8, !tbaa !40
  br label %78

78:                                               ; preds = %78, %.preheader.i.i22
  %indvars.iv.i.i24 = phi i64 [ 0, %.preheader.i.i22 ], [ %indvars.iv.next.i.i30, %78 ]
  %.01217.i.i25 = phi i32 [ 127, %.preheader.i.i22 ], [ %.1.i.i29, %78 ]
  %.01316.i.i26 = phi i32 [ -1, %.preheader.i.i22 ], [ %.114.i.i28, %78 ]
  %79 = getelementptr inbounds nuw [24 x i8], ptr %76, i64 0, i64 %indvars.iv.i.i24
  %80 = load i8, ptr %79, align 1, !tbaa !47
  %81 = sext i8 %80 to i32
  %82 = icmp sgt i8 %80, %77
  %83 = icmp sgt i32 %.01217.i.i25, %81
  %or.cond.i.i27 = select i1 %82, i1 %83, i1 false
  %84 = trunc nuw nsw i64 %indvars.iv.i.i24 to i32
  %.114.i.i28 = select i1 %or.cond.i.i27, i32 %84, i32 %.01316.i.i26
  %.1.i.i29 = select i1 %or.cond.i.i27, i32 %81, i32 %.01217.i.i25
  %indvars.iv.next.i.i30 = add nuw nsw i64 %indvars.iv.i.i24, 1
  %exitcond.not.i.i31 = icmp eq i64 %indvars.iv.next.i.i30, 24
  br i1 %exitcond.not.i.i31, label %85, label %78, !llvm.loop !68

85:                                               ; preds = %78
  %86 = icmp sgt i32 %.114.i.i28, -1
  br i1 %86, label %87, label %_ZN6icu_778Calendar16recalculateStampEv.exit.i32

87:                                               ; preds = %85
  %88 = add i8 %77, 1
  store i8 %88, ptr %72, align 8, !tbaa !40
  %89 = zext nneg i32 %.114.i.i28 to i64
  %90 = getelementptr inbounds nuw [24 x i8], ptr %76, i64 0, i64 %89
  store i8 %88, ptr %90, align 1, !tbaa !47
  %91 = add nuw nsw i32 %.01119.i.i23, 1
  %exitcond21.not.i.i33 = icmp eq i32 %91, 24
  br i1 %exitcond21.not.i.i33, label %._crit_edge.i.i34, label %.preheader.i.i22, !llvm.loop !69

._crit_edge.i.i34:                                ; preds = %87
  %.pre.i.i35 = load i8, ptr %72, align 8, !tbaa !40
  br label %_ZN6icu_778Calendar16recalculateStampEv.exit.i32

_ZN6icu_778Calendar16recalculateStampEv.exit.i32: ; preds = %85, %._crit_edge.i.i34
  %92 = phi i8 [ %.pre.i.i35, %._crit_edge.i.i34 ], [ %77, %85 ]
  %93 = add i8 %92, 1
  br label %_ZN6icu_778Calendar3setE19UCalendarDateFieldsi.exit36

_ZN6icu_778Calendar3setE19UCalendarDateFieldsi.exit36: ; preds = %71, %_ZN6icu_778Calendar16recalculateStampEv.exit.i32
  %94 = phi i8 [ %93, %_ZN6icu_778Calendar16recalculateStampEv.exit.i32 ], [ %73, %71 ]
  %95 = add i8 %94, 1
  store i8 %95, ptr %72, align 8, !tbaa !40
  %96 = getelementptr inbounds nuw i8, ptr %0, i64 104
  %97 = getelementptr inbounds nuw [24 x i8], ptr %96, i64 0, i64 %20
  store i8 %94, ptr %97, align 1, !tbaa !47
  %98 = load i8, ptr %64, align 8
  %99 = and i8 %98, -12
  store i8 %99, ptr %64, align 8
  br label %100

100:                                              ; preds = %_ZN6icu_778Calendar3setE19UCalendarDateFieldsi.exit, %_ZN6icu_778Calendar3setE19UCalendarDateFieldsi.exit36, %61, %3, %9
  ret void
}